target datalayout = "e-m:e-p270:32:32-p271:32:32-p272:64:64-i64:64-i128:128-f80:128-n8:16:32:64-S128"
target triple = "x86_64-unknown-linux-gnu"

%"class.hermes::hbc::RuntimeFunctionHeader" = type { ptr }
%"struct.hermes::hbc::FunctionHeader" = type <{ i32, i32, i32, i32, i32, i32, i32, i8, i8, %"union.hermes::hbc::FunctionHeaderFlag" }>
%"union.hermes::hbc::FunctionHeaderFlag" = type { %struct.anon.47 }
%struct.anon.47 = type { i8 }
%"class.hermes::vm::CodeBlock" = type <{ ptr, %"class.hermes::hbc::RuntimeFunctionHeader", ptr, i32, i32, i32, [4 x i8] }>
%"class.std::__cxx11::basic_string" = type { %"struct.std::__cxx11::basic_string<char>::_Alloc_hider", i64, %union.anon }
%"struct.std::__cxx11::basic_string<char>::_Alloc_hider" = type { ptr }
%union.anon = type { i64, [8 x i8] }

; Function Attrs: mustprogress nounwind uwtable
define linkonce_odr hidden noundef ptr @_ZNK6hermes3hbc21RuntimeFunctionHeader7asSmallEv(ptr noundef nonnull align 8 dereferenceable(8) %this) #0 comdat align 2 {
entry:
  %this.addr = alloca ptr, align 8
  store ptr %this, ptr %this.addr, align 8
  %this1 = load ptr, ptr %this.addr, align 8
  %ptr_ = getelementptr inbounds %"class.hermes::hbc::RuntimeFunctionHeader", ptr %this1, i32 0, i32 0
  %0 = load ptr, ptr %ptr_, align 8
  ret ptr %0
}

; Function Attrs: mustprogress nounwind uwtable
define linkonce_odr hidden noundef ptr @_ZNK6hermes3hbc21RuntimeFunctionHeader7asLargeEv(ptr noundef nonnull align 8 dereferenceable(8) %this) #0 comdat align 2 {
entry:
  %this.addr = alloca ptr, align 8
  store ptr %this, ptr %this.addr, align 8
  %this1 = load ptr, ptr %this.addr, align 8
  %ptr_ = getelementptr inbounds %"class.hermes::hbc::RuntimeFunctionHeader", ptr %this1, i32 0, i32 0
  %0 = load ptr, ptr %ptr_, align 8
  %add.ptr = getelementptr inbounds i8, ptr %0, i64 -1
  ret ptr %add.ptr
}

; Function Attrs: mustprogress nounwind uwtable
define linkonce_odr hidden noundef zeroext i1 @_ZNK6hermes3hbc21RuntimeFunctionHeader7isLargeEv(ptr noundef nonnull align 8 dereferenceable(8) %this) #0 comdat align 2 {
entry:
  %this.addr = alloca ptr, align 8
  store ptr %this, ptr %this.addr, align 8
  %this1 = load ptr, ptr %this.addr, align 8
  %ptr_ = getelementptr inbounds %"class.hermes::hbc::RuntimeFunctionHeader", ptr %this1, i32 0, i32 0
  %0 = load ptr, ptr %ptr_, align 8
  %1 = ptrtoint ptr %0 to i64
  %and = and i64 %1, 1
  %tobool = icmp ne i64 %and, 0
  ret i1 %tobool
}

; Function Attrs: mustprogress nounwind uwtable
define linkonce_odr hidden noundef i32 @_ZNK6hermes3hbc21RuntimeFunctionHeader12functionNameEv(ptr noundef nonnull align 8 dereferenceable(8) %this) #0 comdat align 2 {
entry:
  %retval = alloca i32, align 4
  %this.addr = alloca ptr, align 8
  store ptr %this, ptr %this.addr, align 8
  %this1 = load ptr, ptr %this.addr, align 8
  %call = call noundef zeroext i1 @_ZNK6hermes3hbc21RuntimeFunctionHeader7isLargeEv(ptr noundef nonnull align 8 dereferenceable(8) %this1)
  br i1 %call, label %if.then, label %if.else

if.then:                                          ; preds = %entry
  %call2 = call noundef ptr @_ZNK6hermes3hbc21RuntimeFunctionHeader7asLargeEv(ptr noundef nonnull align 8 dereferenceable(8) %this1)
  %functionName = getelementptr inbounds %"struct.hermes::hbc::FunctionHeader", ptr %call2, i32 0, i32 3
  %0 = load i32, ptr %functionName, align 1
  store i32 %0, ptr %retval, align 4
  br label %return

if.else:                                          ; preds = %entry
  %call3 = call noundef ptr @_ZNK6hermes3hbc21RuntimeFunctionHeader7asSmallEv(ptr noundef nonnull align 8 dereferenceable(8) %this1)
  %bf.load = load i120, ptr %call3, align 1
  %bf.lshr = lshr i120 %bf.load, 47
  %bf.clear = and i120 %bf.lshr, 131071
  %bf.cast = trunc i120 %bf.clear to i32
  store i32 %bf.cast, ptr %retval, align 4
  br label %return

return:                                           ; preds = %if.else, %if.then
  %1 = load i32, ptr %retval, align 4
  ret i32 %1
}

; Function Attrs: mustprogress nounwind uwtable
define hidden void @_ZNK6hermes2vm9CodeBlock13getNameStringB5cxx11ERNS0_6GCBase11GCCallbacksE(ptr noalias sret(%"class.std::__cxx11::basic_string") align 8 %agg.result, ptr noundef nonnull align 8 dereferenceable(40) %this, ptr noundef nonnull align 8 dereferenceable(8) %runtime) #0 align 2 {
entry:
  %result.ptr = alloca ptr, align 8
  %this.addr = alloca ptr, align 8
  %runtime.addr = alloca ptr, align 8
  store ptr %agg.result, ptr %result.ptr, align 8
  store ptr %this, ptr %this.addr, align 8
  store ptr %runtime, ptr %runtime.addr, align 8
  %this1 = load ptr, ptr %this.addr, align 8
  %runtimeModule_ = getelementptr inbounds %"class.hermes::vm::CodeBlock", ptr %this1, i32 0, i32 0
  %0 = load ptr, ptr %runtimeModule_, align 8
  %functionHeader_ = getelementptr inbounds %"class.hermes::vm::CodeBlock", ptr %this1, i32 0, i32 1
  %call = call noundef i32 @_ZNK6hermes3hbc21RuntimeFunctionHeader12functionNameEv(ptr noundef nonnull align 8 dereferenceable(8) %functionHeader_)
  call void @_ZN6hermes2vm13RuntimeModule21getStringFromStringIDB5cxx11Ej(ptr sret(%"class.std::__cxx11::basic_string") align 8 %agg.result, ptr noundef nonnull align 8 dereferenceable(192) %0, i32 noundef %call)
  ret void
}