; Function Attrs: mustprogress nounwind uwtable
define hidden void @_ZNK6hermes2vm9CodeBlock13getNameStringB5cxx11ERNS0_6GCBase11GCCallbacksE(ptr noalias sret(%"class.std::__cxx11::basic_string") align 8 %agg.result, ptr noundef nonnull readonly align 8 captures(none) dereferenceable(40) %this, ptr noundef nonnull readnone align 8 captures(none) dereferenceable(8) %runtime) local_unnamed_addr #0 align 2 {
entry:
  %0 = load ptr, ptr %this, align 8
  %functionHeader_ = getelementptr inbounds nuw i8, ptr %this, i64 8
  %1 = load ptr, ptr %functionHeader_, align 8
  %2 = ptrtoint ptr %1 to i64
  %and.i.i = and i64 %2, 1
  %tobool.i.not.i = icmp eq i64 %and.i.i, 0
  br i1 %tobool.i.not.i, label %if.else.i, label %if.then.i

if.then.i:                                        ; preds = %entry
  %functionName.i = getelementptr inbounds nuw i8, ptr %1, i64 11
  %3 = load i32, ptr %functionName.i, align 1
  br label %_ZNK6hermes3hbc21RuntimeFunctionHeader12functionNameEv.exit

if.else.i:                                        ; preds = %entry
  %bf.load.i = load i120, ptr %1, align 1
  %bf.lshr.i = lshr i120 %bf.load.i, 47
  %4 = trunc i120 %bf.lshr.i to i32
  %bf.cast.i = and i32 %4, 131071
  br label %_ZNK6hermes3hbc21RuntimeFunctionHeader12functionNameEv.exit

_ZNK6hermes3hbc21RuntimeFunctionHeader12functionNameEv.exit: ; preds = %if.then.i, %if.else.i
  %retval.0.i = phi i32 [ %3, %if.then.i ], [ %bf.cast.i, %if.else.i ]
  tail call void @_ZN6hermes2vm13RuntimeModule21getStringFromStringIDB5cxx11Ej(ptr sret(%"class.std::__cxx11::basic_string") align 8 %agg.result, ptr noundef nonnull align 8 dereferenceable(192) %0, i32 noundef %retval.0.i) #7
  ret void
}